target datalayout = "e-m:e-p270:32:32-p271:32:32-p272:64:64-i64:64-i128:128-f80:128-n8:16:32:64-S128"
target triple = "x86_64-pc-linux-gnu"

%struct._zval_struct = type { %union._zend_value, %union.anon, %union.anon.2 }
%union._zend_value = type { i64 }
%union.anon = type { i32 }
%union.anon.2 = type { i32 }
%struct.anon.0 = type { i8, i8, %union.anon.1 }
%union.anon.1 = type { i16 }

; Function Attrs: nounwind uwtable
define internal void @spl_ptr_heap_zval_ctor(ptr noundef %0) #0 {
  %2 = alloca ptr, align 8
  %3 = alloca ptr, align 8
  %4 = alloca ptr, align 8
  store ptr %0, ptr %4, align 8
  br label %5

5:                                                ; preds = %1
  %6 = load ptr, ptr %4, align 8
  %7 = getelementptr inbounds %struct._zval_struct, ptr %6, i32 0, i32 1
  %8 = getelementptr inbounds %struct.anon.0, ptr %7, i32 0, i32 1
  %9 = load i8, ptr %8, align 1
  %10 = zext i8 %9 to i32
  %11 = icmp ne i32 %10, 0
  br i1 %11, label %12, label %25

12:                                               ; preds = %5
  %13 = load ptr, ptr %4, align 8
  store ptr %13, ptr %3, align 8
  %14 = load ptr, ptr %3, align 8
  %15 = getelementptr inbounds %struct._zval_struct, ptr %14, i32 0, i32 1
  %16 = getelementptr inbounds %struct.anon.0, ptr %15, i32 0, i32 1
  %17 = load i8, ptr %16, align 1
  %18 = zext i8 %17 to i32
  %19 = icmp ne i32 %18, 0
  call void @llvm.assume(i1 %19)
  %20 = load ptr, ptr %3, align 8
  %21 = load ptr, ptr %20, align 8
  store ptr %21, ptr %2, align 8
  %22 = load ptr, ptr %2, align 8
  %23 = load i32, ptr %22, align 4
  %24 = add i32 %23, 1
  store i32 %24, ptr %22, align 4
  br label %25

25:                                               ; preds = %12, %5
  br label %26

26:                                               ; preds = %25
  ret void
}